; Function Attrs: mustprogress uwtable
define hidden void @_ZN4cvc58internal3smt14PrintBenchmark14printBenchmarkERSoRKNSt7__cxx1112basic_stringIcSt11char_traitsIcESaIcEEERKSt6vectorINS0_12NodeTemplateILb1EEESaISE_EESI_(ptr noundef nonnull align 8 dereferenceable(32) %0, ptr noundef nonnull align 8 dereferenceable(8) %1, ptr noundef nonnull align 8 dereferenceable(32) %2, ptr noundef nonnull readonly align 8 captures(none) dereferenceable(24) %3, ptr noundef nonnull readonly align 8 captures(none) dereferenceable(24) %4) local_unnamed_addr #3 align 2 {
  %6 = getelementptr inbounds nuw i8, ptr %0, i64 8
  %7 = load ptr, ptr %6, align 8, !tbaa !53
  %8 = load ptr, ptr %7, align 8, !tbaa !54
  %9 = getelementptr inbounds nuw i8, ptr %8, i64 456
  %10 = load ptr, ptr %9, align 8
  tail call void %10(ptr noundef nonnull align 8 dereferenceable(8) %7, ptr noundef nonnull align 8 dereferenceable(8) %1, ptr noundef nonnull align 8 dereferenceable(32) %2)
  %11 = load ptr, ptr %1, align 8, !tbaa !54
  %12 = getelementptr i8, ptr %11, i64 -24
  %13 = load i64, ptr %12, align 8
  %14 = getelementptr inbounds i8, ptr %1, i64 %13
  %15 = getelementptr inbounds nuw i8, ptr %14, i64 240
  %16 = load ptr, ptr %15, align 8, !tbaa !56
  %.not.i.i.i = icmp eq ptr %16, null
  br i1 %.not.i.i.i, label %17, label %_ZSt13__check_facetISt5ctypeIcEERKT_PS3_.exit.i.i

17:                                               ; preds = %5
  tail call void @_ZSt16__throw_bad_castv() #22
  unreachable

_ZSt13__check_facetISt5ctypeIcEERKT_PS3_.exit.i.i: ; preds = %5
  %18 = getelementptr inbounds nuw i8, ptr %16, i64 56
  %19 = load i8, ptr %18, align 8, !tbaa !72
  %.not.i1.i.i = icmp eq i8 %19, 0
  br i1 %.not.i1.i.i, label %23, label %20

20:                                               ; preds = %_ZSt13__check_facetISt5ctypeIcEERKT_PS3_.exit.i.i
  %21 = getelementptr inbounds nuw i8, ptr %16, i64 67
  %22 = load i8, ptr %21, align 1, !tbaa !78
  br label %_ZSt4endlIcSt11char_traitsIcEERSt13basic_ostreamIT_T0_ES6_.exit

23:                                               ; preds = %_ZSt13__check_facetISt5ctypeIcEERKT_PS3_.exit.i.i
  tail call void @_ZNKSt5ctypeIcE13_M_widen_initEv(ptr noundef nonnull align 8 dereferenceable(570) %16)
  %24 = load ptr, ptr %16, align 8, !tbaa !54
  %25 = getelementptr inbounds nuw i8, ptr %24, i64 48
  %26 = load ptr, ptr %25, align 8
  %27 = tail call noundef signext i8 %26(ptr noundef nonnull align 8 dereferenceable(570) %16, i8 noundef signext 10)
  br label %_ZSt4endlIcSt11char_traitsIcEERSt13basic_ostreamIT_T0_ES6_.exit

_ZSt4endlIcSt11char_traitsIcEERSt13basic_ostreamIT_T0_ES6_.exit: ; preds = %20, %23
  %.0.i.i.i = phi i8 [ %22, %20 ], [ %27, %23 ]
  %28 = tail call noundef nonnull align 8 dereferenceable(8) ptr @_ZNSo3putEc(ptr noundef nonnull align 8 dereferenceable(8) %1, i8 noundef signext %.0.i.i.i)
  %29 = tail call noundef nonnull align 8 dereferenceable(8) ptr @_ZNSo5flushEv(ptr noundef nonnull align 8 dereferenceable(8) %28)
  tail call void @_ZN4cvc58internal3smt14PrintBenchmark15printAssertionsERSoRKSt6vectorINS0_12NodeTemplateILb1EEESaIS6_EESA_(ptr noundef nonnull align 8 dereferenceable(32) %0, ptr noundef nonnull align 8 dereferenceable(8) %1, ptr noundef nonnull align 8 dereferenceable(24) %3, ptr noundef nonnull align 8 dereferenceable(24) %4)
  %30 = load ptr, ptr %6, align 8, !tbaa !53
  %31 = load ptr, ptr %30, align 8, !tbaa !54
  %32 = getelementptr inbounds nuw i8, ptr %31, i64 208
  %33 = load ptr, ptr %32, align 8
  tail call void %33(ptr noundef nonnull align 8 dereferenceable(8) %30, ptr noundef nonnull align 8 dereferenceable(8) %1)
  %34 = load ptr, ptr %1, align 8, !tbaa !54
  %35 = getelementptr i8, ptr %34, i64 -24
  %36 = load i64, ptr %35, align 8
  %37 = getelementptr inbounds i8, ptr %1, i64 %36
  %38 = getelementptr inbounds nuw i8, ptr %37, i64 240
  %39 = load ptr, ptr %38, align 8, !tbaa !56
  %.not.i.i.i9 = icmp eq ptr %39, null
  br i1 %.not.i.i.i9, label %40, label %_ZSt13__check_facetISt5ctypeIcEERKT_PS3_.exit.i.i10

40:                                               ; preds = %_ZSt4endlIcSt11char_traitsIcEERSt13basic_ostreamIT_T0_ES6_.exit
  tail call void @_ZSt16__throw_bad_castv() #22
  unreachable

_ZSt13__check_facetISt5ctypeIcEERKT_PS3_.exit.i.i10: ; preds = %_ZSt4endlIcSt11char_traitsIcEERSt13basic_ostreamIT_T0_ES6_.exit
  %41 = getelementptr inbounds nuw i8, ptr %39, i64 56
  %42 = load i8, ptr %41, align 8, !tbaa !72
  %.not.i1.i.i11 = icmp eq i8 %42, 0
  br i1 %.not.i1.i.i11, label %46, label %43

43:                                               ; preds = %_ZSt13__check_facetISt5ctypeIcEERKT_PS3_.exit.i.i10
  %44 = getelementptr inbounds nuw i8, ptr %39, i64 67
  %45 = load i8, ptr %44, align 1, !tbaa !78
  br label %_ZSt4endlIcSt11char_traitsIcEERSt13basic_ostreamIT_T0_ES6_.exit13

46:                                               ; preds = %_ZSt13__check_facetISt5ctypeIcEERKT_PS3_.exit.i.i10
  tail call void @_ZNKSt5ctypeIcE13_M_widen_initEv(ptr noundef nonnull align 8 dereferenceable(570) %39)
  %47 = load ptr, ptr %39, align 8, !tbaa !54
  %48 = getelementptr inbounds nuw i8, ptr %47, i64 48
  %49 = load ptr, ptr %48, align 8
  %50 = tail call noundef signext i8 %49(ptr noundef nonnull align 8 dereferenceable(570) %39, i8 noundef signext 10)
  br label %_ZSt4endlIcSt11char_traitsIcEERSt13basic_ostreamIT_T0_ES6_.exit13

_ZSt4endlIcSt11char_traitsIcEERSt13basic_ostreamIT_T0_ES6_.exit13: ; preds = %43, %46
  %.0.i.i.i12 = phi i8 [ %45, %43 ], [ %50, %46 ]
  %51 = tail call noundef nonnull align 8 dereferenceable(8) ptr @_ZNSo3putEc(ptr noundef nonnull align 8 dereferenceable(8) %1, i8 noundef signext %.0.i.i.i12)
  %52 = tail call noundef nonnull align 8 dereferenceable(8) ptr @_ZNSo5flushEv(ptr noundef nonnull align 8 dereferenceable(8) %51)
  ret void
}